target datalayout = "e-m:e-p270:32:32-p271:32:32-p272:64:64-i64:64-i128:128-f80:128-n8:16:32:64-S128"
target triple = "x86_64-pc-linux-gnu"

%class.anon.22 = type { ptr, ptr, ptr }
%"class.std::vector.31" = type { %"struct.std::_Vector_base.32" }
%"struct.std::_Vector_base.32" = type { %"struct.std::_Vector_base<char, std::allocator<char>>::_Vector_impl" }
%"struct.std::_Vector_base<char, std::allocator<char>>::_Vector_impl" = type { %"struct.std::_Vector_base<char, std::allocator<char>>::_Vector_impl_data" }
%"struct.std::_Vector_base<char, std::allocator<char>>::_Vector_impl_data" = type { ptr, ptr, ptr }

; Function Attrs: mustprogress nounwind uwtable
define linkonce_odr dso_local void @_ZNSt12_Vector_baseIcSaIcEE17_Vector_impl_dataC2EOS2_(ptr noundef nonnull align 8 dereferenceable(24) %0, ptr noundef nonnull align 8 dereferenceable(24) %1) unnamed_addr #3 comdat align 2 {
  %3 = alloca ptr, align 8
  %4 = alloca ptr, align 8
  store ptr %0, ptr %3, align 8
  store ptr %1, ptr %4, align 8
  %5 = load ptr, ptr %3, align 8
  %6 = getelementptr inbounds %"struct.std::_Vector_base<char, std::allocator<char>>::_Vector_impl_data", ptr %5, i32 0, i32 0
  %7 = load ptr, ptr %4, align 8
  %8 = getelementptr inbounds %"struct.std::_Vector_base<char, std::allocator<char>>::_Vector_impl_data", ptr %7, i32 0, i32 0
  %9 = load ptr, ptr %8, align 8
  store ptr %9, ptr %6, align 8
  %10 = getelementptr inbounds %"struct.std::_Vector_base<char, std::allocator<char>>::_Vector_impl_data", ptr %5, i32 0, i32 1
  %11 = load ptr, ptr %4, align 8
  %12 = getelementptr inbounds %"struct.std::_Vector_base<char, std::allocator<char>>::_Vector_impl_data", ptr %11, i32 0, i32 1
  %13 = load ptr, ptr %12, align 8
  store ptr %13, ptr %10, align 8
  %14 = getelementptr inbounds %"struct.std::_Vector_base<char, std::allocator<char>>::_Vector_impl_data", ptr %5, i32 0, i32 2
  %15 = load ptr, ptr %4, align 8
  %16 = getelementptr inbounds %"struct.std::_Vector_base<char, std::allocator<char>>::_Vector_impl_data", ptr %15, i32 0, i32 2
  %17 = load ptr, ptr %16, align 8
  store ptr %17, ptr %14, align 8
  %18 = load ptr, ptr %4, align 8
  %19 = getelementptr inbounds %"struct.std::_Vector_base<char, std::allocator<char>>::_Vector_impl_data", ptr %18, i32 0, i32 2
  store ptr null, ptr %19, align 8
  %20 = load ptr, ptr %4, align 8
  %21 = getelementptr inbounds %"struct.std::_Vector_base<char, std::allocator<char>>::_Vector_impl_data", ptr %20, i32 0, i32 1
  store ptr null, ptr %21, align 8
  %22 = load ptr, ptr %4, align 8
  %23 = getelementptr inbounds %"struct.std::_Vector_base<char, std::allocator<char>>::_Vector_impl_data", ptr %22, i32 0, i32 0
  store ptr null, ptr %23, align 8
  ret void
}

; Function Attrs: mustprogress nounwind uwtable
define linkonce_odr dso_local noundef ptr @_ZNKSt6vectorIcSaIcEE11_M_data_ptrIcEEPT_S4_(ptr noundef nonnull align 8 dereferenceable(24) %0, ptr noundef %1) #3 comdat align 2 {
  %3 = alloca ptr, align 8
  %4 = alloca ptr, align 8
  store ptr %0, ptr %3, align 8
  store ptr %1, ptr %4, align 8
  %5 = load ptr, ptr %4, align 8
  ret ptr %5
}

; Function Attrs: mustprogress nounwind uwtable
define linkonce_odr dso_local void @_ZNSt12_Vector_baseIcSaIcEE12_Vector_implC2EOS2_(ptr noundef nonnull align 8 dereferenceable(24) %0, ptr noundef nonnull align 8 dereferenceable(24) %1) unnamed_addr #3 comdat align 2 {
  %3 = alloca ptr, align 8
  %4 = alloca ptr, align 8
  store ptr %0, ptr %3, align 8
  store ptr %1, ptr %4, align 8
  %5 = load ptr, ptr %3, align 8
  %6 = load ptr, ptr %4, align 8
  call void @_ZNSaIcEC2ERKS_(ptr noundef nonnull align 1 dereferenceable(1) %5, ptr noundef nonnull align 1 dereferenceable(1) %6) #11
  %7 = load ptr, ptr %4, align 8
  call void @_ZNSt12_Vector_baseIcSaIcEE17_Vector_impl_dataC2EOS2_(ptr noundef nonnull align 8 dereferenceable(24) %5, ptr noundef nonnull align 8 dereferenceable(24) %7) #11
  ret void
}

; Function Attrs: mustprogress uwtable
define linkonce_odr dso_local noundef zeroext i1 @_ZN14cmProcessTools12OutputParser7ProcessEPKci(ptr noundef nonnull align 8 dereferenceable(8) %0, ptr noundef %1, i32 noundef %2) #0 comdat align 2 {
  %4 = alloca ptr, align 8
  %5 = alloca ptr, align 8
  %6 = alloca i32, align 4
  store ptr %0, ptr %4, align 8
  store ptr %1, ptr %5, align 8
  store i32 %2, ptr %6, align 4
  %7 = load ptr, ptr %4, align 8
  %8 = load ptr, ptr %5, align 8
  %9 = load i32, ptr %6, align 4
  %10 = load ptr, ptr %7, align 8
  %11 = getelementptr inbounds ptr, ptr %10, i64 2
  %12 = load ptr, ptr %11, align 8
  %13 = call noundef zeroext i1 %12(ptr noundef nonnull align 8 dereferenceable(8) %7, ptr noundef %8, i32 noundef %9)
  ret i1 %13
}

; Function Attrs: mustprogress nounwind uwtable
define linkonce_odr dso_local noundef i64 @_ZNKSt6vectorIcSaIcEE4sizeEv(ptr noundef nonnull align 8 dereferenceable(24) %0) #3 comdat align 2 {
  %2 = alloca ptr, align 8
  store ptr %0, ptr %2, align 8
  %3 = load ptr, ptr %2, align 8
  %4 = getelementptr inbounds %"struct.std::_Vector_base.32", ptr %3, i32 0, i32 0
  %5 = getelementptr inbounds %"struct.std::_Vector_base<char, std::allocator<char>>::_Vector_impl_data", ptr %4, i32 0, i32 1
  %6 = load ptr, ptr %5, align 8
  %7 = getelementptr inbounds %"struct.std::_Vector_base.32", ptr %3, i32 0, i32 0
  %8 = getelementptr inbounds %"struct.std::_Vector_base<char, std::allocator<char>>::_Vector_impl_data", ptr %7, i32 0, i32 0
  %9 = load ptr, ptr %8, align 8
  %10 = ptrtoint ptr %6 to i64
  %11 = ptrtoint ptr %9 to i64
  %12 = sub i64 %10, %11
  ret i64 %12
}

; Function Attrs: mustprogress nounwind uwtable
define linkonce_odr dso_local noundef ptr @_ZNSt6vectorIcSaIcEE4dataEv(ptr noundef nonnull align 8 dereferenceable(24) %0) #3 comdat align 2 {
  %2 = alloca ptr, align 8
  store ptr %0, ptr %2, align 8
  %3 = load ptr, ptr %2, align 8
  %4 = getelementptr inbounds %"struct.std::_Vector_base.32", ptr %3, i32 0, i32 0
  %5 = getelementptr inbounds %"struct.std::_Vector_base<char, std::allocator<char>>::_Vector_impl_data", ptr %4, i32 0, i32 0
  %6 = load ptr, ptr %5, align 8
  %7 = call noundef ptr @_ZNKSt6vectorIcSaIcEE11_M_data_ptrIcEEPT_S4_(ptr noundef nonnull align 8 dereferenceable(24) %3, ptr noundef %6) #11
  ret ptr %7
}

; Function Attrs: mustprogress nounwind uwtable
define linkonce_odr dso_local void @_ZNSt12_Vector_baseIcSaIcEEC2EOS1_(ptr noundef nonnull align 8 dereferenceable(24) %0, ptr noundef nonnull align 8 dereferenceable(24) %1) unnamed_addr #3 comdat align 2 {
  %3 = alloca ptr, align 8
  %4 = alloca ptr, align 8
  store ptr %0, ptr %3, align 8
  store ptr %1, ptr %4, align 8
  %5 = load ptr, ptr %3, align 8
  %6 = getelementptr inbounds %"struct.std::_Vector_base.32", ptr %5, i32 0, i32 0
  %7 = load ptr, ptr %4, align 8
  %8 = getelementptr inbounds %"struct.std::_Vector_base.32", ptr %7, i32 0, i32 0
  call void @_ZNSt12_Vector_baseIcSaIcEE12_Vector_implC2EOS2_(ptr noundef nonnull align 8 dereferenceable(24) %6, ptr noundef nonnull align 8 dereferenceable(24) %8) #11
  ret void
}

; Function Attrs: mustprogress uwtable
define internal void @"_ZZN14cmProcessTools10RunProcessER23cmUVProcessChainBuilderPNS_12OutputParserES3_N15cmProcessOutput8EncodingEENK3$_0clESt6vectorIcSaIcEE"(ptr noundef nonnull align 8 dereferenceable(24) %0, ptr noundef %1) #0 align 2 {
  %3 = alloca ptr, align 8
  %4 = alloca ptr, align 8
  store ptr %0, ptr %3, align 8
  store ptr %1, ptr %4, align 8
  %5 = load ptr, ptr %3, align 8
  %6 = getelementptr inbounds %class.anon.22, ptr %5, i32 0, i32 0
  %7 = load ptr, ptr %6, align 8
  %8 = load ptr, ptr %7, align 8
  %9 = icmp ne ptr %8, null
  br i1 %9, label %10, label %33

10:                                               ; preds = %2
  %11 = getelementptr inbounds %class.anon.22, ptr %5, i32 0, i32 1
  %12 = load ptr, ptr %11, align 8
  %13 = call noundef ptr @_ZNSt6vectorIcSaIcEE4dataEv(ptr noundef nonnull align 8 dereferenceable(24) %1) #11
  %14 = call noundef i64 @_ZNKSt6vectorIcSaIcEE4sizeEv(ptr noundef nonnull align 8 dereferenceable(24) %1) #11
  %15 = getelementptr inbounds %class.anon.22, ptr %5, i32 0, i32 2
  %16 = load ptr, ptr %15, align 8
  %17 = call noundef zeroext i1 @_ZN15cmProcessOutput10DecodeTextEPKcmRNSt7__cxx1112basic_stringIcSt11char_traitsIcESaIcEEEm(ptr noundef nonnull align 1 dereferenceable(1) %12, ptr noundef %13, i64 noundef %14, ptr noundef nonnull align 8 dereferenceable(32) %16, i64 noundef 1)
  %18 = getelementptr inbounds %class.anon.22, ptr %5, i32 0, i32 0
  %19 = load ptr, ptr %18, align 8
  %20 = load ptr, ptr %19, align 8
  %21 = getelementptr inbounds %class.anon.22, ptr %5, i32 0, i32 2
  %22 = load ptr, ptr %21, align 8
  %23 = call noundef ptr @_ZNKSt7__cxx1112basic_stringIcSt11char_traitsIcESaIcEE5c_strEv(ptr noundef nonnull align 8 dereferenceable(32) %22) #11
  %24 = getelementptr inbounds %class.anon.22, ptr %5, i32 0, i32 2
  %25 = load ptr, ptr %24, align 8
  %26 = call noundef i64 @_ZNKSt7__cxx1112basic_stringIcSt11char_traitsIcESaIcEE4sizeEv(ptr noundef nonnull align 8 dereferenceable(32) %25) #11
  %27 = trunc i64 %26 to i32
  %28 = call noundef zeroext i1 @_ZN14cmProcessTools12OutputParser7ProcessEPKci(ptr noundef nonnull align 8 dereferenceable(8) %20, ptr noundef %23, i32 noundef %27)
  br i1 %28, label %32, label %29

29:                                               ; preds = %10
  %30 = getelementptr inbounds %class.anon.22, ptr %5, i32 0, i32 0
  %31 = load ptr, ptr %30, align 8
  store ptr null, ptr %31, align 8
  br label %32

32:                                               ; preds = %29, %10
  br label %33

33:                                               ; preds = %32, %2
  ret void
}

; Function Attrs: mustprogress nounwind uwtable
define linkonce_odr dso_local void @_ZNSt6vectorIcSaIcEEC2EOS1_(ptr noundef nonnull align 8 dereferenceable(24) %0, ptr noundef nonnull align 8 dereferenceable(24) %1) unnamed_addr #3 comdat align 2 {
  %3 = alloca ptr, align 8
  %4 = alloca ptr, align 8
  store ptr %0, ptr %3, align 8
  store ptr %1, ptr %4, align 8
  %5 = load ptr, ptr %3, align 8
  %6 = load ptr, ptr %4, align 8
  call void @_ZNSt12_Vector_baseIcSaIcEEC2EOS1_(ptr noundef nonnull align 8 dereferenceable(24) %5, ptr noundef nonnull align 8 dereferenceable(24) %6) #11
  ret void
}

; Function Attrs: mustprogress nounwind uwtable
define linkonce_odr dso_local noundef ptr @_ZNKSt9_Any_data9_M_accessEv(ptr noundef nonnull align 8 dereferenceable(16) %0) #3 comdat align 2 {
  %2 = alloca ptr, align 8
  store ptr %0, ptr %2, align 8
  %3 = load ptr, ptr %2, align 8
  %4 = getelementptr inbounds [16 x i8], ptr %3, i64 0, i64 0
  ret ptr %4
}

; Function Attrs: mustprogress uwtable
define internal void @"_ZSt13__invoke_implIvRZN14cmProcessTools10RunProcessER23cmUVProcessChainBuilderPNS0_12OutputParserES4_N15cmProcessOutput8EncodingEE3$_0JSt6vectorIcSaIcEEEET_St14__invoke_otherOT0_DpOT1_"(ptr noundef nonnull align 8 dereferenceable(24) %0, ptr noundef nonnull align 8 dereferenceable(24) %1) #0 personality ptr @__gxx_personality_v0 {
  %3 = alloca ptr, align 8
  %4 = alloca ptr, align 8
  %5 = alloca %"class.std::vector.31", align 8
  %6 = alloca ptr, align 8
  %7 = alloca i32, align 4
  store ptr %0, ptr %3, align 8
  store ptr %1, ptr %4, align 8
  %8 = load ptr, ptr %3, align 8
  %9 = load ptr, ptr %4, align 8
  call void @_ZNSt6vectorIcSaIcEEC2EOS1_(ptr noundef nonnull align 8 dereferenceable(24) %5, ptr noundef nonnull align 8 dereferenceable(24) %9) #11
  invoke void @"_ZZN14cmProcessTools10RunProcessER23cmUVProcessChainBuilderPNS_12OutputParserES3_N15cmProcessOutput8EncodingEENK3$_0clESt6vectorIcSaIcEE"(ptr noundef nonnull align 8 dereferenceable(24) %8, ptr noundef %5)
          to label %10 unwind label %11

10:                                               ; preds = %2
  call void @_ZNSt6vectorIcSaIcEED2Ev(ptr noundef nonnull align 8 dereferenceable(24) %5) #11
  ret void

11:                                               ; preds = %2
  %12 = landingpad { ptr, i32 }
          cleanup
  %13 = extractvalue { ptr, i32 } %12, 0
  store ptr %13, ptr %6, align 8
  %14 = extractvalue { ptr, i32 } %12, 1
  store i32 %14, ptr %7, align 4
  call void @_ZNSt6vectorIcSaIcEED2Ev(ptr noundef nonnull align 8 dereferenceable(24) %5) #11
  br label %15

15:                                               ; preds = %11
  %16 = load ptr, ptr %6, align 8
  %17 = load i32, ptr %7, align 4
  %18 = insertvalue { ptr, i32 } poison, ptr %16, 0
  %19 = insertvalue { ptr, i32 } %18, i32 %17, 1
  resume { ptr, i32 } %19
}

; Function Attrs: mustprogress nounwind uwtable
define internal noundef nonnull align 8 dereferenceable(8) ptr @"_ZNKSt9_Any_data9_M_accessIPZN14cmProcessTools10RunProcessER23cmUVProcessChainBuilderPNS1_12OutputParserES5_N15cmProcessOutput8EncodingEE3$_0EERKT_v"(ptr noundef nonnull align 8 dereferenceable(16) %0) #3 align 2 {
  %2 = alloca ptr, align 8
  store ptr %0, ptr %2, align 8
  %3 = load ptr, ptr %2, align 8
  %4 = call noundef ptr @_ZNKSt9_Any_data9_M_accessEv(ptr noundef nonnull align 8 dereferenceable(16) %3) #11
  ret ptr %4
}

; Function Attrs: mustprogress uwtable
define internal void @"_ZSt10__invoke_rIvRZN14cmProcessTools10RunProcessER23cmUVProcessChainBuilderPNS0_12OutputParserES4_N15cmProcessOutput8EncodingEE3$_0JSt6vectorIcSaIcEEEENSt9enable_ifIX16is_invocable_r_vIT_T0_DpT1_EESD_E4typeEOSE_DpOSF_"(ptr noundef nonnull align 8 dereferenceable(24) %0, ptr noundef nonnull align 8 dereferenceable(24) %1) #0 {
  %3 = alloca ptr, align 8
  %4 = alloca ptr, align 8
  store ptr %0, ptr %3, align 8
  store ptr %1, ptr %4, align 8
  %5 = load ptr, ptr %3, align 8
  %6 = load ptr, ptr %4, align 8
  call void @"_ZSt13__invoke_implIvRZN14cmProcessTools10RunProcessER23cmUVProcessChainBuilderPNS0_12OutputParserES4_N15cmProcessOutput8EncodingEE3$_0JSt6vectorIcSaIcEEEET_St14__invoke_otherOT0_DpOT1_"(ptr noundef nonnull align 8 dereferenceable(24) %5, ptr noundef nonnull align 8 dereferenceable(24) %6)
  ret void
}

; Function Attrs: mustprogress nounwind uwtable
define internal noundef ptr @"_ZNSt14_Function_base13_Base_managerIZN14cmProcessTools10RunProcessER23cmUVProcessChainBuilderPNS1_12OutputParserES5_N15cmProcessOutput8EncodingEE3$_0E14_M_get_pointerERKSt9_Any_data"(ptr noundef nonnull align 8 dereferenceable(16) %0) #3 align 2 {
  %2 = alloca ptr, align 8
  store ptr %0, ptr %2, align 8
  %3 = load ptr, ptr %2, align 8
  %4 = call noundef nonnull align 8 dereferenceable(8) ptr @"_ZNKSt9_Any_data9_M_accessIPZN14cmProcessTools10RunProcessER23cmUVProcessChainBuilderPNS1_12OutputParserES5_N15cmProcessOutput8EncodingEE3$_0EERKT_v"(ptr noundef nonnull align 8 dereferenceable(16) %3) #11
  %5 = load ptr, ptr %4, align 8
  ret ptr %5
}

; Function Attrs: mustprogress uwtable
define internal void @"_ZNSt17_Function_handlerIFvSt6vectorIcSaIcEEEZN14cmProcessTools10RunProcessER23cmUVProcessChainBuilderPNS4_12OutputParserES8_N15cmProcessOutput8EncodingEE3$_0E9_M_invokeERKSt9_Any_dataOS2_"(ptr noundef nonnull align 8 dereferenceable(16) %0, ptr noundef nonnull align 8 dereferenceable(24) %1) #0 align 2 {
  %3 = alloca ptr, align 8
  %4 = alloca ptr, align 8
  store ptr %0, ptr %3, align 8
  store ptr %1, ptr %4, align 8
  %5 = load ptr, ptr %3, align 8
  %6 = call noundef ptr @"_ZNSt14_Function_base13_Base_managerIZN14cmProcessTools10RunProcessER23cmUVProcessChainBuilderPNS1_12OutputParserES5_N15cmProcessOutput8EncodingEE3$_0E14_M_get_pointerERKSt9_Any_data"(ptr noundef nonnull align 8 dereferenceable(16) %5) #11
  %7 = load ptr, ptr %4, align 8
  call void @"_ZSt10__invoke_rIvRZN14cmProcessTools10RunProcessER23cmUVProcessChainBuilderPNS0_12OutputParserES4_N15cmProcessOutput8EncodingEE3$_0JSt6vectorIcSaIcEEEENSt9enable_ifIX16is_invocable_r_vIT_T0_DpT1_EESD_E4typeEOSE_DpOSF_"(ptr noundef nonnull align 8 dereferenceable(24) %6, ptr noundef nonnull align 8 dereferenceable(24) %7)
  ret void
}